target datalayout = "e-m:e-p270:32:32-p271:32:32-p272:64:64-i64:64-i128:128-f80:128-n8:16:32:64-S128"
target triple = "x86_64-pc-linux-gnu"

@_ZZL18lua_collectgarbageP9lua_StateE4opts = internal constant [10 x ptr] [ptr @.str.222, ptr @.str.223, ptr @.str.224, ptr @.str.225, ptr @.str.226, ptr @.str.227, ptr @.str.228, ptr @.str.229, ptr @.str.230, ptr null], align 16
@.str.224 = private unnamed_addr constant [8 x i8] c"collect\00", align 1
@_ZZL18lua_collectgarbageP9lua_StateE7optsnum = internal constant [9 x i32] [i32 0, i32 1, i32 2, i32 3, i32 5, i32 6, i32 7, i32 8, i32 9], align 16

; Function Attrs: mustprogress uwtable
define internal noundef i32 @_ZL18lua_collectgarbageP9lua_State(ptr noundef %0) #4 {
  %2 = alloca i32, align 4
  %3 = alloca ptr, align 8
  %4 = alloca i32, align 4
  %5 = alloca i32, align 4
  %6 = alloca i32, align 4
  store ptr %0, ptr %3, align 8
  %7 = load ptr, ptr %3, align 8
  %8 = call noundef i32 @_Z16luaL_checkoptionP9lua_StateiPKcPKS2_(ptr noundef %7, i32 noundef 1, ptr noundef @.str.224, ptr noundef @_ZZL18lua_collectgarbageP9lua_StateE4opts)
  store i32 %8, ptr %4, align 4
  %9 = load ptr, ptr %3, align 8
  %10 = call noundef i32 @_Z15luaL_optintegerP9lua_Stateii(ptr noundef %9, i32 noundef 2, i32 noundef 0)
  store i32 %10, ptr %5, align 4
  %11 = load ptr, ptr %3, align 8
  %12 = load i32, ptr %4, align 4
  %13 = sext i32 %12 to i64
  %14 = getelementptr inbounds [9 x i32], ptr @_ZZL18lua_collectgarbageP9lua_StateE7optsnum, i64 0, i64 %13
  %15 = load i32, ptr %14, align 4
  %16 = load i32, ptr %5, align 4
  %17 = call noundef i32 @_Z6lua_gcP9lua_Stateii(ptr noundef %11, i32 noundef %15, i32 noundef %16)
  store i32 %17, ptr %6, align 4
  %18 = load i32, ptr %4, align 4
  %19 = sext i32 %18 to i64
  %20 = getelementptr inbounds [9 x i32], ptr @_ZZL18lua_collectgarbageP9lua_StateE7optsnum, i64 0, i64 %19
  %21 = load i32, ptr %20, align 4
  switch i32 %21, label %25 [
    i32 6, label %22
    i32 5, label %22
  ]

22:                                               ; preds = %1, %1
  %23 = load ptr, ptr %3, align 8
  %24 = load i32, ptr %6, align 4
  call void @_Z15lua_pushbooleanP9lua_Statei(ptr noundef %23, i32 noundef %24)
  store i32 1, ptr %2, align 4
  br label %29

25:                                               ; preds = %1
  %26 = load ptr, ptr %3, align 8
  %27 = load i32, ptr %6, align 4
  %28 = sitofp i32 %27 to double
  call void @_Z14lua_pushnumberP9lua_Stated(ptr noundef %26, double noundef %28)
  store i32 1, ptr %2, align 4
  br label %29

29:                                               ; preds = %25, %22
  %30 = load i32, ptr %2, align 4
  ret i32 %30
}