; Function Attrs: mustprogress uwtable
define internal noundef i32 @_ZL18lua_collectgarbageP9lua_State(ptr noundef %0) #4 {
  %2 = tail call noundef i32 @_Z16luaL_checkoptionP9lua_StateiPKcPKS2_(ptr noundef %0, i32 noundef 1, ptr noundef nonnull @.str.224, ptr noundef nonnull @_ZZL18lua_collectgarbageP9lua_StateE4opts)
  %3 = tail call noundef i32 @_Z15luaL_optintegerP9lua_Stateii(ptr noundef %0, i32 noundef 2, i32 noundef 0)
  %4 = sext i32 %2 to i64
  %5 = getelementptr inbounds [9 x i32], ptr @_ZZL18lua_collectgarbageP9lua_StateE7optsnum, i64 0, i64 %4
  %6 = load i32, ptr %5, align 4
  %7 = tail call noundef i32 @_Z6lua_gcP9lua_Stateii(ptr noundef %0, i32 noundef %6, i32 noundef %3)
  %.off = add i32 %6, -5
  %switch = icmp ult i32 %.off, 2
  br i1 %switch, label %8, label %9

8:                                                ; preds = %1
  tail call void @_Z15lua_pushbooleanP9lua_Statei(ptr noundef %0, i32 noundef %7)
  br label %11

9:                                                ; preds = %1
  %10 = sitofp i32 %7 to double
  tail call void @_Z14lua_pushnumberP9lua_Stated(ptr noundef %0, double noundef %10)
  br label %11

11:                                               ; preds = %9, %8
  ret i32 1
}